; ModuleID = '2/1168.c'
source_filename = "2/1168.c"
target datalayout = "e-m:e-p270:32:32-p271:32:32-p272:64:64-i64:64-f80:128-n8:16:32:64-S128"
target triple = "x86_64-pc-linux-gnu"

%struct.book = type { i32, [26 x i8] }

@.str = private unnamed_addr constant [3 x i8] c"%d\00", align 1
@.str.1 = private unnamed_addr constant [6 x i8] c"%d %s\00", align 1
@.str.2 = private unnamed_addr constant [7 x i8] c"%c\0A%d\0A\00", align 1
@.str.3 = private unnamed_addr constant [4 x i8] c"%d\0A\00", align 1

; Function Attrs: noinline nounwind uwtable
define dso_local i32 @main() #0 {
  %1 = alloca i32, align 4
  %2 = alloca i32, align 4
  %3 = alloca i32, align 4
  %4 = alloca i32, align 4
  %5 = alloca [26 x i32], align 16
  %6 = alloca i32, align 4
  %7 = alloca [1000 x %struct.book], align 16
  store i32 0, i32* %1, align 4
  %8 = bitcast [26 x i32]* %5 to i8*
  call void @llvm.memset.p0i8.i64(i8* align 16 %8, i8 0, i64 104, i1 false)
  store i32 0, i32* %6, align 4
  %9 = call i32 (i8*, ...) @__isoc99_scanf(i8* getelementptr inbounds ([3 x i8], [3 x i8]* @.str, i64 0, i64 0), i32* %4)
  store i32 0, i32* %2, align 4
  br label %10

10:                                               ; preds = %54, %0
  %11 = load i32, i32* %2, align 4
  %12 = load i32, i32* %4, align 4
  %13 = icmp slt i32 %11, %12
  br i1 %13, label %14, label %57

14:                                               ; preds = %10
  %15 = load i32, i32* %2, align 4
  %16 = sext i32 %15 to i64
  %17 = getelementptr inbounds [1000 x %struct.book], [1000 x %struct.book]* %7, i64 0, i64 %16
  %18 = getelementptr inbounds %struct.book, %struct.book* %17, i32 0, i32 0
  %19 = load i32, i32* %2, align 4
  %20 = sext i32 %19 to i64
  %21 = getelementptr inbounds [1000 x %struct.book], [1000 x %struct.book]* %7, i64 0, i64 %20
  %22 = getelementptr inbounds %struct.book, %struct.book* %21, i32 0, i32 1
  %23 = getelementptr inbounds [26 x i8], [26 x i8]* %22, i64 0, i64 0
  %24 = call i32 (i8*, ...) @__isoc99_scanf(i8* getelementptr inbounds ([6 x i8], [6 x i8]* @.str.1, i64 0, i64 0), i32* %18, i8* %23)
  store i32 0, i32* %3, align 4
  br label %25

25:                                               ; preds = %50, %14
  %26 = load i32, i32* %3, align 4
  %27 = sext i32 %26 to i64
  %28 = load i32, i32* %2, align 4
  %29 = sext i32 %28 to i64
  %30 = getelementptr inbounds [1000 x %struct.book], [1000 x %struct.book]* %7, i64 0, i64 %29
  %31 = getelementptr inbounds %struct.book, %struct.book* %30, i32 0, i32 1
  %32 = getelementptr inbounds [26 x i8], [26 x i8]* %31, i64 0, i64 0
  %33 = call i64 @strlen(i8* %32) #4
  %34 = icmp ult i64 %27, %33
  br i1 %34, label %35, label %53

35:                                               ; preds = %25
  %36 = load i32, i32* %2, align 4
  %37 = sext i32 %36 to i64
  %38 = getelementptr inbounds [1000 x %struct.book], [1000 x %struct.book]* %7, i64 0, i64 %37
  %39 = getelementptr inbounds %struct.book, %struct.book* %38, i32 0, i32 1
  %40 = load i32, i32* %3, align 4
  %41 = sext i32 %40 to i64
  %42 = getelementptr inbounds [26 x i8], [26 x i8]* %39, i64 0, i64 %41
  %43 = load i8, i8* %42, align 1
  %44 = sext i8 %43 to i32
  %45 = sub nsw i32 %44, 65
  %46 = sext i32 %45 to i64
  %47 = getelementptr inbounds [26 x i32], [26 x i32]* %5, i64 0, i64 %46
  %48 = load i32, i32* %47, align 4
  %49 = add nsw i32 %48, 1
  store i32 %49, i32* %47, align 4
  br label %50

50:                                               ; preds = %35
  %51 = load i32, i32* %3, align 4
  %52 = add nsw i32 %51, 1
  store i32 %52, i32* %3, align 4
  br label %25

53:                                               ; preds = %25
  br label %54

54:                                               ; preds = %53
  %55 = load i32, i32* %2, align 4
  %56 = add nsw i32 %55, 1
  store i32 %56, i32* %2, align 4
  br label %10

57:                                               ; preds = %10
  store i32 0, i32* %2, align 4
  br label %58

58:                                               ; preds = %74, %57
  %59 = load i32, i32* %2, align 4
  %60 = icmp slt i32 %59, 26
  br i1 %60, label %61, label %77

61:                                               ; preds = %58
  %62 = load i32, i32* %2, align 4
  %63 = sext i32 %62 to i64
  %64 = getelementptr inbounds [26 x i32], [26 x i32]* %5, i64 0, i64 %63
  %65 = load i32, i32* %64, align 4
  %66 = load i32, i32* %6, align 4
  %67 = sext i32 %66 to i64
  %68 = getelementptr inbounds [26 x i32], [26 x i32]* %5, i64 0, i64 %67
  %69 = load i32, i32* %68, align 4
  %70 = icmp sgt i32 %65, %69
  br i1 %70, label %71, label %73

71:                                               ; preds = %61
  %72 = load i32, i32* %2, align 4
  store i32 %72, i32* %6, align 4
  br label %73

73:                                               ; preds = %71, %61
  br label %74

74:                                               ; preds = %73
  %75 = load i32, i32* %2, align 4
  %76 = add nsw i32 %75, 1
  store i32 %76, i32* %2, align 4
  br label %58

77:                                               ; preds = %58
  %78 = load i32, i32* %6, align 4
  %79 = add nsw i32 %78, 65
  %80 = load i32, i32* %6, align 4
  %81 = sext i32 %80 to i64
  %82 = getelementptr inbounds [26 x i32], [26 x i32]* %5, i64 0, i64 %81
  %83 = load i32, i32* %82, align 4
  %84 = call i32 (i8*, ...) @printf(i8* getelementptr inbounds ([7 x i8], [7 x i8]* @.str.2, i64 0, i64 0), i32 %79, i32 %83)
  store i32 0, i32* %2, align 4
  br label %85

85:                                               ; preds = %125, %77
  %86 = load i32, i32* %2, align 4
  %87 = load i32, i32* %4, align 4
  %88 = icmp slt i32 %86, %87
  br i1 %88, label %89, label %128

89:                                               ; preds = %85
  store i32 0, i32* %3, align 4
  br label %90

90:                                               ; preds = %121, %89
  %91 = load i32, i32* %3, align 4
  %92 = sext i32 %91 to i64
  %93 = load i32, i32* %2, align 4
  %94 = sext i32 %93 to i64
  %95 = getelementptr inbounds [1000 x %struct.book], [1000 x %struct.book]* %7, i64 0, i64 %94
  %96 = getelementptr inbounds %struct.book, %struct.book* %95, i32 0, i32 1
  %97 = getelementptr inbounds [26 x i8], [26 x i8]* %96, i64 0, i64 0
  %98 = call i64 @strlen(i8* %97) #4
  %99 = icmp ult i64 %92, %98
  br i1 %99, label %100, label %124

100:                                              ; preds = %90
  %101 = load i32, i32* %2, align 4
  %102 = sext i32 %101 to i64
  %103 = getelementptr inbounds [1000 x %struct.book], [1000 x %struct.book]* %7, i64 0, i64 %102
  %104 = getelementptr inbounds %struct.book, %struct.book* %103, i32 0, i32 1
  %105 = load i32, i32* %3, align 4
  %106 = sext i32 %105 to i64
  %107 = getelementptr inbounds [26 x i8], [26 x i8]* %104, i64 0, i64 %106
  %108 = load i8, i8* %107, align 1
  %109 = sext i8 %108 to i32
  %110 = load i32, i32* %6, align 4
  %111 = add nsw i32 %110, 65
  %112 = icmp eq i32 %109, %111
  br i1 %112, label %113, label %120

113:                                              ; preds = %100
  %114 = load i32, i32* %2, align 4
  %115 = sext i32 %114 to i64
  %116 = getelementptr inbounds [1000 x %struct.book], [1000 x %struct.book]* %7, i64 0, i64 %115
  %117 = getelementptr inbounds %struct.book, %struct.book* %116, i32 0, i32 0
  %118 = load i32, i32* %117, align 16
  %119 = call i32 (i8*, ...) @printf(i8* getelementptr inbounds ([4 x i8], [4 x i8]* @.str.3, i64 0, i64 0), i32 %118)
  br label %120

120:                                              ; preds = %113, %100
  br label %121

121:                                              ; preds = %120
  %122 = load i32, i32* %3, align 4
  %123 = add nsw i32 %122, 1
  store i32 %123, i32* %3, align 4
  br label %90

124:                                              ; preds = %90
  br label %125

125:                                              ; preds = %124
  %126 = load i32, i32* %2, align 4
  %127 = add nsw i32 %126, 1
  store i32 %127, i32* %2, align 4
  br label %85

128:                                              ; preds = %85
  %129 = load i32, i32* %1, align 4
  ret i32 %129
}

; Function Attrs: argmemonly nounwind willreturn
declare void @llvm.memset.p0i8.i64(i8* nocapture writeonly, i8, i64, i1 immarg) #1

declare dso_local i32 @__isoc99_scanf(i8*, ...) #2

; Function Attrs: nounwind readonly
declare dso_local i64 @strlen(i8*) #3

declare dso_local i32 @printf(i8*, ...) #2


!llvm.module.flags = !{!0}
!llvm.ident = !{!1}

!0 = !{i32 1, !"wchar_size", i32 4}
!1 = !{!"clang version 10.0.0-4ubuntu1 "}
